target datalayout = "e-m:e-p270:32:32-p271:32:32-p272:64:64-i64:64-i128:128-f80:128-n8:16:32:64-S128"
target triple = "x86_64-pc-linux-gnu"

%struct.Wlc_Ntk_t_ = type { ptr, ptr, %struct.Vec_Int_t_, %struct.Vec_Int_t_, %struct.Vec_Int_t_, %struct.Vec_Int_t_, %struct.Vec_Int_t_, %struct.Vec_Int_t_, ptr, ptr, ptr, [60 x i32], [60 x i32], i32, i32, i32, i32, i32, ptr, i32, i32, ptr, ptr, ptr, ptr, ptr, %struct.Vec_Int_t_, %struct.Vec_Int_t_, i32, %struct.Vec_Int_t_, %struct.Vec_Int_t_, %struct.Vec_Int_t_, %struct.Vec_Int_t_, %struct.Vec_Int_t_, %struct.Vec_Int_t_ }
%struct.Vec_Int_t_ = type { i32, i32, ptr }
%struct.Wlc_Obj_t_ = type { i16, i32, i32, i32, %union.anon }
%union.anon = type { [1 x ptr] }
%struct.Abc_Cex_t_ = type { i32, i32, i32, i32, i32, [0 x i32] }

@.str.5 = private unnamed_addr constant [2 x i8] c"\0A\00", align 1
@.str.8 = private unnamed_addr constant [18 x i8] c"The CEX is NULL.\0A\00", align 1
@.str.9 = private unnamed_addr constant [11 x i8] c"Frame%02d \00", align 1
@.str.10 = private unnamed_addr constant [6 x i8] c"PI%d:\00", align 1
@.str.11 = private unnamed_addr constant [3 x i8] c"%d\00", align 1
@.str.12 = private unnamed_addr constant [2 x i8] c" \00", align 1
@.str.13 = private unnamed_addr constant [4 x i8] c"FF:\00", align 1

; Function Attrs: inlinehint nounwind uwtable
define internal ptr @Wlc_NtkObj(ptr noundef %0, i32 noundef %1) #2 {
  %3 = alloca ptr, align 8
  %4 = alloca i32, align 4
  store ptr %0, ptr %3, align 8, !tbaa !3
  store i32 %1, ptr %4, align 4, !tbaa !8
  %5 = load ptr, ptr %3, align 8, !tbaa !3
  %6 = getelementptr inbounds nuw %struct.Wlc_Ntk_t_, ptr %5, i32 0, i32 18
  %7 = load ptr, ptr %6, align 8, !tbaa !20
  %8 = load i32, ptr %4, align 4, !tbaa !8
  %9 = sext i32 %8 to i64
  %10 = getelementptr inbounds %struct.Wlc_Obj_t_, ptr %7, i64 %9
  ret ptr %10
}

; Function Attrs: inlinehint nounwind uwtable
define internal i32 @Vec_IntEntry(ptr noundef %0, i32 noundef %1) #2 {
  %3 = alloca ptr, align 8
  %4 = alloca i32, align 4
  store ptr %0, ptr %3, align 8, !tbaa !10
  store i32 %1, ptr %4, align 4, !tbaa !8
  %5 = load ptr, ptr %3, align 8, !tbaa !10
  %6 = getelementptr inbounds nuw %struct.Vec_Int_t_, ptr %5, i32 0, i32 2
  %7 = load ptr, ptr %6, align 8, !tbaa !33
  %8 = load i32, ptr %4, align 4, !tbaa !8
  %9 = sext i32 %8 to i64
  %10 = getelementptr inbounds i32, ptr %7, i64 %9
  %11 = load i32, ptr %10, align 4, !tbaa !8
  ret i32 %11
}

; Function Attrs: inlinehint nounwind uwtable
define internal i32 @Vec_IntSize(ptr noundef %0) #2 {
  %2 = alloca ptr, align 8
  store ptr %0, ptr %2, align 8, !tbaa !10
  %3 = load ptr, ptr %2, align 8, !tbaa !10
  %4 = getelementptr inbounds nuw %struct.Vec_Int_t_, ptr %3, i32 0, i32 1
  %5 = load i32, ptr %4, align 4, !tbaa !31
  ret i32 %5
}

; Function Attrs: inlinehint nounwind uwtable
define internal i32 @Abc_InfoHasBit(ptr noundef %0, i32 noundef %1) #2 {
  %3 = alloca ptr, align 8
  %4 = alloca i32, align 4
  store ptr %0, ptr %3, align 8, !tbaa !73
  store i32 %1, ptr %4, align 4, !tbaa !8
  %5 = load ptr, ptr %3, align 8, !tbaa !73
  %6 = load i32, ptr %4, align 4, !tbaa !8
  %7 = ashr i32 %6, 5
  %8 = sext i32 %7 to i64
  %9 = getelementptr inbounds i32, ptr %5, i64 %8
  %10 = load i32, ptr %9, align 4, !tbaa !8
  %11 = load i32, ptr %4, align 4, !tbaa !8
  %12 = and i32 %11, 31
  %13 = shl i32 1, %12
  %14 = and i32 %10, %13
  %15 = icmp ugt i32 %14, 0
  %16 = zext i1 %15 to i32
  ret i32 %16
}

; Function Attrs: inlinehint nounwind uwtable
define internal i32 @Wlc_ObjRange(ptr noundef %0) #2 {
  %2 = alloca ptr, align 8
  store ptr %0, ptr %2, align 8, !tbaa !12
  %3 = load ptr, ptr %2, align 8, !tbaa !12
  %4 = getelementptr inbounds nuw %struct.Wlc_Obj_t_, ptr %3, i32 0, i32 2
  %5 = load i32, ptr %4, align 8, !tbaa !34
  %6 = load ptr, ptr %2, align 8, !tbaa !12
  %7 = getelementptr inbounds nuw %struct.Wlc_Obj_t_, ptr %6, i32 0, i32 3
  %8 = load i32, ptr %7, align 4, !tbaa !35
  %9 = icmp sge i32 %5, %8
  br i1 %9, label %10, label %18

10:                                               ; preds = %1
  %11 = load ptr, ptr %2, align 8, !tbaa !12
  %12 = getelementptr inbounds nuw %struct.Wlc_Obj_t_, ptr %11, i32 0, i32 2
  %13 = load i32, ptr %12, align 8, !tbaa !34
  %14 = load ptr, ptr %2, align 8, !tbaa !12
  %15 = getelementptr inbounds nuw %struct.Wlc_Obj_t_, ptr %14, i32 0, i32 3
  %16 = load i32, ptr %15, align 4, !tbaa !35
  %17 = sub nsw i32 %13, %16
  br label %26

18:                                               ; preds = %1
  %19 = load ptr, ptr %2, align 8, !tbaa !12
  %20 = getelementptr inbounds nuw %struct.Wlc_Obj_t_, ptr %19, i32 0, i32 3
  %21 = load i32, ptr %20, align 4, !tbaa !35
  %22 = load ptr, ptr %2, align 8, !tbaa !12
  %23 = getelementptr inbounds nuw %struct.Wlc_Obj_t_, ptr %22, i32 0, i32 2
  %24 = load i32, ptr %23, align 8, !tbaa !34
  %25 = sub nsw i32 %21, %24
  br label %26

26:                                               ; preds = %18, %10
  %27 = phi i32 [ %17, %10 ], [ %25, %18 ]
  %28 = add nsw i32 1, %27
  ret i32 %28
}

; Function Attrs: inlinehint nounwind uwtable
define internal ptr @Wlc_NtkPi(ptr noundef %0, i32 noundef %1) #2 {
  %3 = alloca ptr, align 8
  %4 = alloca i32, align 4
  store ptr %0, ptr %3, align 8, !tbaa !3
  store i32 %1, ptr %4, align 4, !tbaa !8
  %5 = load ptr, ptr %3, align 8, !tbaa !3
  %6 = load ptr, ptr %3, align 8, !tbaa !3
  %7 = getelementptr inbounds nuw %struct.Wlc_Ntk_t_, ptr %6, i32 0, i32 2
  %8 = load i32, ptr %4, align 4, !tbaa !8
  %9 = call i32 @Vec_IntEntry(ptr noundef %7, i32 noundef %8)
  %10 = call ptr @Wlc_NtkObj(ptr noundef %5, i32 noundef %9)
  ret ptr %10
}

; Function Attrs: inlinehint nounwind uwtable
define internal i32 @Wlc_NtkPiNum(ptr noundef %0) #2 {
  %2 = alloca ptr, align 8
  store ptr %0, ptr %2, align 8, !tbaa !3
  %3 = load ptr, ptr %2, align 8, !tbaa !3
  %4 = getelementptr inbounds nuw %struct.Wlc_Ntk_t_, ptr %3, i32 0, i32 2
  %5 = call i32 @Vec_IntSize(ptr noundef %4)
  ret i32 %5
}

; Function Attrs: nounwind uwtable
define void @Wlc_NtkPrintCex(ptr noundef %0, ptr noundef %1, ptr noundef %2) #0 {
  %4 = alloca ptr, align 8
  %5 = alloca ptr, align 8
  %6 = alloca ptr, align 8
  %7 = alloca ptr, align 8
  %8 = alloca i32, align 4
  %9 = alloca i32, align 4
  %10 = alloca i32, align 4
  %11 = alloca i32, align 4
  %12 = alloca i32, align 4
  store ptr %0, ptr %4, align 8, !tbaa !3
  store ptr %1, ptr %5, align 8, !tbaa !3
  store ptr %2, ptr %6, align 8, !tbaa !92
  call void @llvm.lifetime.start.p0(i64 8, ptr %7) #12
  call void @llvm.lifetime.start.p0(i64 4, ptr %8) #12
  call void @llvm.lifetime.start.p0(i64 4, ptr %9) #12
  call void @llvm.lifetime.start.p0(i64 4, ptr %10) #12
  call void @llvm.lifetime.start.p0(i64 4, ptr %11) #12
  %13 = load ptr, ptr %6, align 8, !tbaa !92
  %14 = icmp ne ptr %13, null
  br i1 %14, label %15, label %19

15:                                               ; preds = %3
  %16 = load ptr, ptr %6, align 8, !tbaa !92
  %17 = getelementptr inbounds nuw %struct.Abc_Cex_t_, ptr %16, i32 0, i32 2
  %18 = load i32, ptr %17, align 4, !tbaa !124
  br label %20

19:                                               ; preds = %3
  br label %20

20:                                               ; preds = %19, %15
  %21 = phi i32 [ %18, %15 ], [ 0, %19 ]
  store i32 %21, ptr %11, align 4, !tbaa !8
  %22 = load ptr, ptr %6, align 8, !tbaa !92
  %23 = icmp eq ptr %22, null
  br i1 %23, label %24, label %26

24:                                               ; preds = %20
  %25 = call i32 (ptr, ...) @printf(ptr noundef @.str.8)
  store i32 1, ptr %12, align 4
  br label %96

26:                                               ; preds = %20
  store i32 0, ptr %10, align 4, !tbaa !8
  br label %27

27:                                               ; preds = %92, %26
  %28 = load i32, ptr %10, align 4, !tbaa !8
  %29 = load ptr, ptr %6, align 8, !tbaa !92
  %30 = getelementptr inbounds nuw %struct.Abc_Cex_t_, ptr %29, i32 0, i32 1
  %31 = load i32, ptr %30, align 4, !tbaa !122
  %32 = icmp sle i32 %28, %31
  br i1 %32, label %33, label %95

33:                                               ; preds = %27
  %34 = load i32, ptr %10, align 4, !tbaa !8
  %35 = call i32 (ptr, ...) @printf(ptr noundef @.str.9, i32 noundef %34)
  store i32 0, ptr %8, align 4, !tbaa !8
  br label %36

36:                                               ; preds = %68, %33
  %37 = load i32, ptr %8, align 4, !tbaa !8
  %38 = load ptr, ptr %5, align 8, !tbaa !3
  %39 = call i32 @Wlc_NtkPiNum(ptr noundef %38)
  %40 = icmp slt i32 %37, %39
  br i1 %40, label %41, label %45

41:                                               ; preds = %36
  %42 = load ptr, ptr %5, align 8, !tbaa !3
  %43 = load i32, ptr %8, align 4, !tbaa !8
  %44 = call ptr @Wlc_NtkPi(ptr noundef %42, i32 noundef %43)
  store ptr %44, ptr %7, align 8, !tbaa !12
  br label %45

45:                                               ; preds = %41, %36
  %46 = phi i1 [ false, %36 ], [ true, %41 ]
  br i1 %46, label %47, label %71

47:                                               ; preds = %45
  %48 = load i32, ptr %8, align 4, !tbaa !8
  %49 = call i32 (ptr, ...) @printf(ptr noundef @.str.10, i32 noundef %48)
  store i32 0, ptr %9, align 4, !tbaa !8
  br label %50

50:                                               ; preds = %63, %47
  %51 = load i32, ptr %9, align 4, !tbaa !8
  %52 = load ptr, ptr %7, align 8, !tbaa !12
  %53 = call i32 @Wlc_ObjRange(ptr noundef %52)
  %54 = icmp slt i32 %51, %53
  br i1 %54, label %55, label %66

55:                                               ; preds = %50
  %56 = load ptr, ptr %6, align 8, !tbaa !92
  %57 = getelementptr inbounds nuw %struct.Abc_Cex_t_, ptr %56, i32 0, i32 5
  %58 = getelementptr inbounds [0 x i32], ptr %57, i64 0, i64 0
  %59 = load i32, ptr %11, align 4, !tbaa !8
  %60 = add nsw i32 %59, 1
  store i32 %60, ptr %11, align 4, !tbaa !8
  %61 = call i32 @Abc_InfoHasBit(ptr noundef %58, i32 noundef %59)
  %62 = call i32 (ptr, ...) @printf(ptr noundef @.str.11, i32 noundef %61)
  br label %63

63:                                               ; preds = %55
  %64 = load i32, ptr %9, align 4, !tbaa !8
  %65 = add nsw i32 %64, 1
  store i32 %65, ptr %9, align 4, !tbaa !8
  br label %50, !llvm.loop !140

66:                                               ; preds = %50
  %67 = call i32 (ptr, ...) @printf(ptr noundef @.str.12)
  br label %68

68:                                               ; preds = %66
  %69 = load i32, ptr %8, align 4, !tbaa !8
  %70 = add nsw i32 %69, 1
  store i32 %70, ptr %8, align 4, !tbaa !8
  br label %36, !llvm.loop !141

71:                                               ; preds = %45
  %72 = call i32 (ptr, ...) @printf(ptr noundef @.str.13)
  store i32 0, ptr %9, align 4, !tbaa !8
  br label %73

73:                                               ; preds = %87, %71
  %74 = load i32, ptr %11, align 4, !tbaa !8
  %75 = load ptr, ptr %6, align 8, !tbaa !92
  %76 = getelementptr inbounds nuw %struct.Abc_Cex_t_, ptr %75, i32 0, i32 3
  %77 = load i32, ptr %76, align 4, !tbaa !142
  %78 = icmp slt i32 %74, %77
  br i1 %78, label %79, label %90

79:                                               ; preds = %73
  %80 = load ptr, ptr %6, align 8, !tbaa !92
  %81 = getelementptr inbounds nuw %struct.Abc_Cex_t_, ptr %80, i32 0, i32 5
  %82 = getelementptr inbounds [0 x i32], ptr %81, i64 0, i64 0
  %83 = load i32, ptr %11, align 4, !tbaa !8
  %84 = add nsw i32 %83, 1
  store i32 %84, ptr %11, align 4, !tbaa !8
  %85 = call i32 @Abc_InfoHasBit(ptr noundef %82, i32 noundef %83)
  %86 = call i32 (ptr, ...) @printf(ptr noundef @.str.11, i32 noundef %85)
  br label %87

87:                                               ; preds = %79
  %88 = load i32, ptr %9, align 4, !tbaa !8
  %89 = add nsw i32 %88, 1
  store i32 %89, ptr %9, align 4, !tbaa !8
  br label %73, !llvm.loop !143

90:                                               ; preds = %73
  %91 = call i32 (ptr, ...) @printf(ptr noundef @.str.5)
  br label %92

92:                                               ; preds = %90
  %93 = load i32, ptr %10, align 4, !tbaa !8
  %94 = add nsw i32 %93, 1
  store i32 %94, ptr %10, align 4, !tbaa !8
  br label %27, !llvm.loop !144

95:                                               ; preds = %27
  store i32 0, ptr %12, align 4
  br label %96

96:                                               ; preds = %95, %24
  call void @llvm.lifetime.end.p0(i64 4, ptr %11) #12
  call void @llvm.lifetime.end.p0(i64 4, ptr %10) #12
  call void @llvm.lifetime.end.p0(i64 4, ptr %9) #12
  call void @llvm.lifetime.end.p0(i64 4, ptr %8) #12
  call void @llvm.lifetime.end.p0(i64 8, ptr %7) #12
  %97 = load i32, ptr %12, align 4
  switch i32 %97, label %99 [
    i32 0, label %98
    i32 1, label %98
  ]

98:                                               ; preds = %96, %96
  ret void

99:                                               ; preds = %96
  unreachable
}