; Function Attrs: nofree nounwind uwtable
define void @Wlc_NtkPrintCex(ptr readnone captures(none) %0, ptr noundef readonly captures(none) %1, ptr noundef readonly %2) local_unnamed_addr #10 {
  %.not = icmp eq ptr %2, null
  br i1 %.not, label %14, label %4

4:                                                ; preds = %3
  %5 = getelementptr inbounds nuw i8, ptr %2, i64 4
  %6 = load i32, ptr %5, align 4, !tbaa !108
  %.not2845 = icmp slt i32 %6, 0
  br i1 %.not2845, label %.loopexit, label %.lr.ph49

.lr.ph49:                                         ; preds = %4
  %7 = getelementptr inbounds nuw i8, ptr %2, i64 8
  %8 = load i32, ptr %7, align 4, !tbaa !112
  %9 = getelementptr i8, ptr %1, i64 20
  %10 = getelementptr i8, ptr %1, i64 24
  %11 = getelementptr i8, ptr %1, i64 640
  %12 = getelementptr inbounds nuw i8, ptr %2, i64 20
  %13 = getelementptr inbounds nuw i8, ptr %2, i64 12
  br label %15

14:                                               ; preds = %3
  %puts = tail call i32 @puts(ptr nonnull dereferenceable(1) @str.2)
  br label %.loopexit

15:                                               ; preds = %.lr.ph49, %._crit_edge
  %.047 = phi i32 [ %8, %.lr.ph49 ], [ %.3.lcssa, %._crit_edge ]
  %.02246 = phi i32 [ 0, %.lr.ph49 ], [ %56, %._crit_edge ]
  %16 = tail call i32 (ptr, ...) @printf(ptr noundef nonnull dereferenceable(1) @.str.9, i32 noundef %.02246)
  %.val3139 = load i32, ptr %9, align 4, !tbaa !26
  %17 = icmp sgt i32 %.val3139, 0
  br i1 %17, label %.lr.ph, label %.critedge

.lr.ph:                                           ; preds = %15, %39
  %indvars.iv = phi i64 [ %indvars.iv.next, %39 ], [ 0, %15 ]
  %.141 = phi i32 [ %27, %39 ], [ %.047, %15 ]
  %.val32 = load ptr, ptr %10, align 8, !tbaa !3
  %.val33 = load ptr, ptr %11, align 8, !tbaa !11
  %18 = getelementptr inbounds nuw i32, ptr %.val32, i64 %indvars.iv
  %19 = load i32, ptr %18, align 4, !tbaa !10
  %20 = sext i32 %19 to i64
  %21 = getelementptr inbounds %struct.Wlc_Obj_t_, ptr %.val33, i64 %20
  %22 = trunc nuw nsw i64 %indvars.iv to i32
  %23 = tail call i32 (ptr, ...) @printf(ptr noundef nonnull dereferenceable(1) @.str.10, i32 noundef %22)
  %24 = getelementptr i8, ptr %21, i64 8
  %25 = getelementptr i8, ptr %21, i64 12
  br label %26

26:                                               ; preds = %.lr.ph, %26
  %.238 = phi i32 [ %.141, %.lr.ph ], [ %27, %26 ]
  %.02337 = phi i32 [ 0, %.lr.ph ], [ %36, %26 ]
  %27 = add nsw i32 %.238, 1
  %28 = ashr i32 %.238, 5
  %29 = sext i32 %28 to i64
  %30 = getelementptr inbounds i32, ptr %12, i64 %29
  %31 = load i32, ptr %30, align 4, !tbaa !10
  %32 = and i32 %.238, 31
  %33 = lshr i32 %31, %32
  %34 = and i32 %33, 1
  %35 = tail call i32 (ptr, ...) @printf(ptr noundef nonnull dereferenceable(1) @.str.11, i32 noundef %34)
  %36 = add nuw nsw i32 %.02337, 1
  %.val = load i32, ptr %24, align 8, !tbaa !27
  %.val30 = load i32, ptr %25, align 4, !tbaa !28
  %37 = sub nsw i32 %.val, %.val30
  %38 = tail call i32 @llvm.abs.i32(i32 %37, i1 true)
  %.not34.not = icmp samesign ult i32 %.02337, %38
  br i1 %.not34.not, label %26, label %39, !llvm.loop !129

39:                                               ; preds = %26
  %putchar29 = tail call i32 @putchar(i32 32)
  %indvars.iv.next = add nuw nsw i64 %indvars.iv, 1
  %.val31 = load i32, ptr %9, align 4, !tbaa !26
  %40 = sext i32 %.val31 to i64
  %41 = icmp slt i64 %indvars.iv.next, %40
  br i1 %41, label %.lr.ph, label %.critedge, !llvm.loop !130

.critedge:                                        ; preds = %39, %15
  %.1.lcssa = phi i32 [ %.047, %15 ], [ %27, %39 ]
  %42 = tail call i32 (ptr, ...) @printf(ptr noundef nonnull dereferenceable(1) @.str.13)
  %43 = load i32, ptr %13, align 4, !tbaa !131
  %44 = icmp slt i32 %.1.lcssa, %43
  br i1 %44, label %.lr.ph43, label %._crit_edge

.lr.ph43:                                         ; preds = %.critedge, %.lr.ph43
  %.342 = phi i32 [ %45, %.lr.ph43 ], [ %.1.lcssa, %.critedge ]
  %45 = add nsw i32 %.342, 1
  %46 = ashr i32 %.342, 5
  %47 = sext i32 %46 to i64
  %48 = getelementptr inbounds i32, ptr %12, i64 %47
  %49 = load i32, ptr %48, align 4, !tbaa !10
  %50 = and i32 %.342, 31
  %51 = lshr i32 %49, %50
  %52 = and i32 %51, 1
  %53 = tail call i32 (ptr, ...) @printf(ptr noundef nonnull dereferenceable(1) @.str.11, i32 noundef %52)
  %54 = load i32, ptr %13, align 4, !tbaa !131
  %55 = icmp slt i32 %45, %54
  br i1 %55, label %.lr.ph43, label %._crit_edge, !llvm.loop !132

._crit_edge:                                      ; preds = %.lr.ph43, %.critedge
  %.3.lcssa = phi i32 [ %.1.lcssa, %.critedge ], [ %45, %.lr.ph43 ]
  %putchar = tail call i32 @putchar(i32 10)
  %56 = add nuw nsw i32 %.02246, 1
  %57 = load i32, ptr %5, align 4, !tbaa !108
  %.not28.not = icmp slt i32 %.02246, %57
  br i1 %.not28.not, label %15, label %.loopexit, !llvm.loop !133

.loopexit:                                        ; preds = %._crit_edge, %4, %14
  ret void
}